Certificate:
    Data:
        Version: 3 (0x2)
        Serial Number: 4097 (0x1001)
        Signature Algorithm: sha256WithRSAEncryption
        Issuer: C=US, ST=California, L=San Francisco, O=MyOrg, OU=MyUnit, CN=intermediate_server
        Validity
            Not Before: Jan  8 22:02:30 2026 GMT
            Not After : Jan  8 22:02:30 2027 GMT
        Subject: C=DE, O=open62541, CN=open62541Server@localhost
        Subject Public Key Info:
            Public Key Algorithm: rsaEncryption
                Public-Key: (2048 bit)
                Modulus:
                    00:94:b6:5f:b7:00:fd:7e:4d:90:82:f8:f0:bc:73:
                    4e:f4:0c:18:b2:5e:8b:32:8a:da:5e:77:ac:1f:86:
                    7b:49:38:c9:71:56:7e:f2:53:36:d7:0c:57:6c:34:
                    c1:22:9c:f7:3c:f5:f2:f8:2e:36:e5:6f:02:50:0f:
                    90:11:1e:65:ab:ac:fc:00:30:d7:f2:e5:5b:c8:54:
                    2c:86:40:4a:2f:b5:5e:9f:50:3a:a9:8e:1e:72:27:
                    60:d0:39:59:60:81:d7:f8:5e:cd:77:95:a0:3d:63:
                    90:2d:02:a8:55:c0:78:24:1a:86:79:e0:72:ec:0e:
                    15:54:85:b0:1c:b2:e1:34:a3:31:0d:2a:cb:8b:3e:
                    0b:54:6e:16:1b:05:ad:77:ab:91:e9:7e:0d:e0:c5:
                    9f:07:e1:5c:63:27:60:57:1e:e0:91:19:97:d8:af:
                    ac:58:8c:04:7a:e9:56:8f:8a:76:5a:ca:6d:48:55:
                    62:05:d3:f9:37:c5:63:81:26:09:c2:9b:6f:ec:42:
                    a4:51:cf:53:79:26:9d:a3:18:dc:f1:3c:8d:dc:fe:
                    6b:ba:21:36:f1:62:d7:df:bf:a1:fe:58:5a:ca:bd:
                    28:f9:5a:76:18:33:09:fa:ce:a1:ee:2f:37:56:fd:
                    8e:cb:06:1d:c4:e7:73:ab:65:98:e7:f3:90:06:83:
                    91:5f
                Exponent: 65537 (0x10001)
        X509v3 extensions:
            X509v3 Basic Constraints: 
                CA:FALSE
            X509v3 Subject Key Identifier: 
                34:35:0A:EE:2D:AD:43:1D:88:FF:87:57:A0:C9:A9:F0:01:B9:74:03
            X509v3 Authority Key Identifier: 
                68:5F:E9:85:20:5A:91:6C:C0:B6:21:7C:A7:D7:22:3D:1B:A9:71:FF
            X509v3 Key Usage: 
                Digital Signature, Non Repudiation, Key Encipherment, Data Encipherment, Certificate Sign
            X509v3 Extended Key Usage: 
                TLS Web Server Authentication, TLS Web Client Authentication
            X509v3 Subject Alternative Name: 
                DNS:pege, DNS:pege, IP Address:127.0.0.1, IP Address:127.0.0.1, URI:urn:open62541.unconfigured.application
    Signature Algorithm: sha256WithRSAEncryption
    Signature Value:
        41:9b:09:dc:02:54:9f:c6:87:4a:34:11:ca:4f:b6:68:73:a7:
        ea:80:53:dd:93:e2:52:bd:09:37:33:e2:8b:4e:ba:fb:4b:77:
        4d:b0:bb:e1:2b:87:ed:2a:12:f5:3e:85:76:01:ab:d5:e7:89:
        b0:3e:66:eb:cc:dd:b8:51:2a:4f:8c:1f:0e:e4:a2:e0:4b:0f:
        71:10:05:c8:0b:06:5a:b8:97:8a:a8:88:6a:17:4c:db:2a:a3:
        c0:a3:90:95:5a:48:2f:b7:57:c7:c4:25:a2:5a:75:8c:93:a7:
        e5:a9:4f:fb:8c:a4:9f:19:5a:a0:39:8e:6c:62:b4:a8:6c:7f:
        88:8f:5c:8d:2a:38:4f:8a:0d:5f:ca:ee:0a:f4:26:6e:11:80:
        35:76:c0:33:60:6a:80:5c:57:ed:a7:e0:f9:ca:2e:fc:97:7c:
        73:2a:da:ee:99:29:88:38:8d:49:c1:41:9c:c9:9d:a8:bd:22:
        25:55:9b:75:a4:20:48:ff:72:2a:87:b9:c1:48:e4:eb:36:de:
        2e:d0:b8:4a:22:10:5f:80:81:95:b7:d6:f1:d4:9e:03:78:38:
        c2:79:b1:56:f9:15:9f:b5:39:b2:a1:77:e3:10:7b:10:f1:7d:
        9a:40:7f:bd:73:b6:5a:ac:64:bd:bc:62:27:22:e2:2e:de:23:
        90:cf:64:dc
-----BEGIN CERTIFICATE-----
MIIEADCCAuigAwIBAgICEAEwDQYJKoZIhvcNAQELBQAweTELMAkGA1UEBhMCVVMx
EzARBgNVBAgMCkNhbGlmb3JuaWExFjAUBgNVBAcMDVNhbiBGcmFuY2lzY28xDjAM
BgNVBAoMBU15T3JnMQ8wDQYDVQQLDAZNeVVuaXQxHDAaBgNVBAMME2ludGVybWVk
aWF0ZV9zZXJ2ZXIwHhcNMjYwMTA4MjIwMjMwWhcNMjcwMTA4MjIwMjMwWjBFMQsw
CQYDVQQGEwJERTESMBAGA1UECgwJb3BlbjYyNTQxMSIwIAYDVQQDDBlvcGVuNjI1
NDFTZXJ2ZXJAbG9jYWxob3N0MIIBIjANBgkqhkiG9w0BAQEFAAOCAQ8AMIIBCgKC
AQEAlLZftwD9fk2QgvjwvHNO9AwYsl6LMoraXnesH4Z7STjJcVZ+8lM21wxXbDTB
Ipz3PPXy+C425W8CUA+QER5lq6z8ADDX8uVbyFQshkBKL7Ven1A6qY4ecidg0DlZ
YIHX+F7Nd5WgPWOQLQKoVcB4JBqGeeBy7A4VVIWwHLLhNKMxDSrLiz4LVG4WGwWt
d6uR6X4N4MWfB+FcYydgVx7gkRmX2K+sWIwEeulWj4p2WsptSFViBdP5N8VjgSYJ
wptv7EKkUc9TeSadoxjc8TyN3P5ruiE28WLX37+h/lhayr0o+Vp2GDMJ+s6h7i83
Vv2OywYdxOdzq2WY5/OQBoORXwIDAQABo4HFMIHCMAkGA1UdEwQCMAAwHQYDVR0O
BBYEFDQ1Cu4trUMdiP+HV6DJqfABuXQDMB8GA1UdIwQYMBaAFGhf6YUgWpFswLYh
fKfXIj0bqXH/MAsGA1UdDwQEAwIC9DAdBgNVHSUEFjAUBggrBgEFBQcDAQYIKwYB
BQUHAwIwSQYDVR0RBEIwQIIEcGVnZYIEcGVnZYcEfwAAAYcEfwAAAYYmdXJuOm9w
ZW42MjU0MS51bmNvbmZpZ3VyZWQuYXBwbGljYXRpb24wDQYJKoZIhvcNAQELBQAD
ggEBAEGbCdwCVJ/Gh0o0EcpPtmhzp+qAU92T4lK9CTcz4otOuvtLd02wu+Erh+0q
EvU+hXYBq9XnibA+ZuvM3bhRKk+MHw7kouBLD3EQBcgLBlq4l4qoiGoXTNsqo8Cj
kJVaSC+3V8fEJaJadYyTp+WpT/uMpJ8ZWqA5jmxitKhsf4iPXI0qOE+KDV/K7gr0
Jm4RgDV2wDNgaoBcV+2n4PnKLvyXfHMq2u6ZKYg4jUnBQZzJnai9IiVVm3WkIEj/
ciqHucFI5Os23i7QuEoiEF+AgZW31vHUngN4OMJ5sVb5FZ+1ObKhd+MQexDxfZpA
f71ztlqsZL28Yici4i7eI5DPZNw=
-----END CERTIFICATE-----
