Certificate:
    Data:
        Version: 3 (0x2)
        Serial Number: 4096 (0x1000)
        Signature Algorithm: sha256WithRSAEncryption
        Issuer: C=US, ST=California, L=San Francisco, O=MyOrg, OU=MyUnit, CN=intermediate_client
        Validity
            Not Before: Jan  8 22:38:58 2026 GMT
            Not After : Jan  8 22:38:58 2027 GMT
        Subject: C=DE, O=open62541, CN=open62541Client@localhost
        Subject Public Key Info:
            Public Key Algorithm: rsaEncryption
                Public-Key: (2048 bit)
                Modulus:
                    00:ba:b7:60:f1:ed:d5:76:0a:d2:75:2d:68:6e:93:
                    cf:c6:33:96:da:db:39:7f:d0:95:c7:bf:7f:82:77:
                    c1:8b:35:7a:5f:da:c4:0e:12:81:dc:3f:41:fb:3e:
                    b0:58:26:06:db:09:b8:44:4e:23:7d:76:cd:33:1b:
                    21:89:71:cc:21:7b:c0:6b:12:9e:e2:c8:21:0d:93:
                    85:f9:b6:d0:f8:59:cf:19:d0:60:e3:57:81:c7:a4:
                    16:ca:7a:40:90:be:4d:7d:5c:83:eb:c9:fb:62:ed:
                    08:e0:bd:bf:c7:9e:78:0e:ef:8b:5d:05:25:79:ae:
                    9e:9f:32:37:1f:7c:7d:42:fa:b3:81:b0:22:95:28:
                    25:ed:40:91:4c:9d:c5:cb:97:71:ef:a3:42:30:8a:
                    cb:3e:db:b0:a8:da:f6:d7:89:cf:d3:b6:bc:e1:5c:
                    cd:f8:3a:80:86:7b:69:0c:b1:49:f1:75:09:e8:89:
                    db:af:cd:de:61:83:71:c5:9d:82:ef:58:be:b1:fc:
                    58:ce:82:de:8c:db:ce:fb:bc:dc:75:f2:65:0a:c8:
                    5e:63:10:9b:54:1b:59:3b:2d:ec:6f:6c:f9:62:fb:
                    19:aa:e7:c0:10:5c:ea:3c:71:3d:e2:9c:1f:a6:af:
                    12:3e:83:f6:cc:24:b9:49:63:6d:33:99:ad:1a:59:
                    ac:89
                Exponent: 65537 (0x10001)
        X509v3 extensions:
            X509v3 Basic Constraints: 
                CA:FALSE
            X509v3 Subject Key Identifier: 
                15:A5:D1:3C:93:63:00:94:99:CD:2E:95:5B:97:9A:50:C7:46:7D:B9
            X509v3 Authority Key Identifier: 
                9C:14:DC:23:E5:D0:69:B4:DB:0E:54:30:5A:D5:14:C8:A4:34:52:9A
            X509v3 Key Usage: 
                Digital Signature, Non Repudiation, Key Encipherment, Data Encipherment, Certificate Sign
            X509v3 Extended Key Usage: 
                TLS Web Server Authentication, TLS Web Client Authentication
            X509v3 Subject Alternative Name: 
                DNS:pege, DNS:pege, IP Address:127.0.0.1, IP Address:127.0.0.1, URI:urn:open62541.unconfigured.application
    Signature Algorithm: sha256WithRSAEncryption
    Signature Value:
        6e:57:f5:3e:1a:d8:60:ce:34:c4:00:fe:8e:bb:c5:b1:2c:68:
        37:9a:2d:bd:df:50:33:8c:1a:d9:ad:c3:20:f1:c1:7f:b7:89:
        c0:d3:d2:91:8f:04:bd:25:80:eb:64:6e:82:f8:f0:6c:27:c2:
        02:02:66:52:f3:80:c1:5a:e8:79:0f:1a:a1:19:46:86:18:97:
        c8:1e:2a:d8:d3:86:be:da:bd:f1:3d:9b:94:41:18:b4:bd:c2:
        7a:8a:7d:e8:8a:23:f4:5f:63:55:81:1e:2a:8d:c5:5c:92:1f:
        77:d1:cc:a6:77:60:68:09:be:2a:d6:b2:f3:3e:a5:54:46:1c:
        ef:a7:20:58:bd:9b:31:ba:dd:c1:f3:d0:7a:7a:e6:60:6a:e8:
        99:15:99:a3:7c:e5:20:76:59:10:89:91:8d:98:a3:b8:33:2d:
        3a:28:60:5b:53:27:fa:1d:f4:ca:81:9b:a4:c6:50:c7:6b:ae:
        d2:b8:67:b6:db:bf:44:9d:f2:9f:01:28:7d:5c:1d:78:8f:e0:
        d5:4f:44:1e:55:db:52:65:69:79:15:b3:ee:84:51:7f:3c:23:
        21:db:cc:78:d5:a6:16:0c:3d:4f:ae:27:7f:23:d8:e3:04:0a:
        2c:9f:8b:18:f3:e6:a3:be:fa:6e:f4:14:f2:d4:5c:f2:f4:e9:
        6e:60:91:57
-----BEGIN CERTIFICATE-----
MIIEADCCAuigAwIBAgICEAAwDQYJKoZIhvcNAQELBQAweTELMAkGA1UEBhMCVVMx
EzARBgNVBAgMCkNhbGlmb3JuaWExFjAUBgNVBAcMDVNhbiBGcmFuY2lzY28xDjAM
BgNVBAoMBU15T3JnMQ8wDQYDVQQLDAZNeVVuaXQxHDAaBgNVBAMME2ludGVybWVk
aWF0ZV9jbGllbnQwHhcNMjYwMTA4MjIzODU4WhcNMjcwMTA4MjIzODU4WjBFMQsw
CQYDVQQGEwJERTESMBAGA1UECgwJb3BlbjYyNTQxMSIwIAYDVQQDDBlvcGVuNjI1
NDFDbGllbnRAbG9jYWxob3N0MIIBIjANBgkqhkiG9w0BAQEFAAOCAQ8AMIIBCgKC
AQEAurdg8e3VdgrSdS1obpPPxjOW2ts5f9CVx79/gnfBizV6X9rEDhKB3D9B+z6w
WCYG2wm4RE4jfXbNMxshiXHMIXvAaxKe4sghDZOF+bbQ+FnPGdBg41eBx6QWynpA
kL5NfVyD68n7Yu0I4L2/x554Du+LXQUlea6enzI3H3x9QvqzgbAilSgl7UCRTJ3F
y5dx76NCMIrLPtuwqNr214nP07a84VzN+DqAhntpDLFJ8XUJ6Inbr83eYYNxxZ2C
71i+sfxYzoLejNvO+7zcdfJlCsheYxCbVBtZOy3sb2z5YvsZqufAEFzqPHE94pwf
pq8SPoP2zCS5SWNtM5mtGlmsiQIDAQABo4HFMIHCMAkGA1UdEwQCMAAwHQYDVR0O
BBYEFBWl0TyTYwCUmc0ulVuXmlDHRn25MB8GA1UdIwQYMBaAFJwU3CPl0Gm02w5U
MFrVFMikNFKaMAsGA1UdDwQEAwIC9DAdBgNVHSUEFjAUBggrBgEFBQcDAQYIKwYB
BQUHAwIwSQYDVR0RBEIwQIIEcGVnZYIEcGVnZYcEfwAAAYcEfwAAAYYmdXJuOm9w
ZW42MjU0MS51bmNvbmZpZ3VyZWQuYXBwbGljYXRpb24wDQYJKoZIhvcNAQELBQAD
ggEBAG5X9T4a2GDONMQA/o67xbEsaDeaLb3fUDOMGtmtwyDxwX+3icDT0pGPBL0l
gOtkboL48GwnwgICZlLzgMFa6HkPGqEZRoYYl8geKtjThr7avfE9m5RBGLS9wnqK
feiKI/RfY1WBHiqNxVySH3fRzKZ3YGgJvirWsvM+pVRGHO+nIFi9mzG63cHz0Hp6
5mBq6JkVmaN85SB2WRCJkY2Yo7gzLTooYFtTJ/od9MqBm6TGUMdrrtK4Z7bbv0Sd
8p8BKH1cHXiP4NVPRB5V21JlaXkVs+6EUX88IyHbzHjVphYMPU+uJ38j2OMECiyf
ixjz5qO++m70FPLUXPL06W5gkVc=
-----END CERTIFICATE-----
