Certificate:
    Data:
        Version: 3 (0x2)
        Serial Number: 4096 (0x1000)
        Signature Algorithm: sha256WithRSAEncryption
        Issuer: C=US, ST=California, L=San Francisco, O=MyOrg, OU=MyUnit, CN=intermediate-ca_client
        Validity
            Not Before: Jan  8 21:13:12 2026 GMT
            Not After : Jan  8 21:13:12 2027 GMT
        Subject: C=DE, O=open62541, CN=open62541Server@localhost
        Subject Public Key Info:
            Public Key Algorithm: rsaEncryption
                Public-Key: (2048 bit)
                Modulus:
                    00:e7:02:5c:10:81:3c:de:fc:e3:3b:34:73:fe:a1:
                    1f:f5:fd:77:1c:ea:d2:dd:1d:8c:96:5b:2b:9d:6f:
                    1d:95:78:51:93:db:3e:53:98:4a:0c:09:9e:d0:26:
                    89:86:7e:a4:85:ad:72:1b:1d:a3:7b:85:f6:03:67:
                    e8:38:57:fd:0d:de:ea:c3:24:91:fb:88:ff:75:c0:
                    2d:02:05:67:e2:f9:cc:cc:c1:9b:a6:e5:41:0c:bf:
                    9f:35:29:b5:9a:36:87:6d:27:88:23:35:86:31:9d:
                    f7:24:8b:df:39:5b:1d:80:4a:0f:ac:ee:d8:f2:5a:
                    a8:c8:f1:e4:19:19:96:9e:f0:cc:b3:65:d7:df:5d:
                    ac:8d:de:cf:b1:64:2f:89:77:f9:ae:9f:9f:29:9c:
                    19:c9:dd:4a:8d:fe:b5:06:4d:ec:a7:6f:a6:1a:a5:
                    2c:e1:c1:ca:6a:ae:77:02:5b:35:86:c6:94:69:0c:
                    e4:55:dc:10:be:26:f8:b5:b8:bd:8f:3e:a2:aa:1a:
                    57:96:11:52:40:53:c7:66:77:3a:bb:44:14:57:cc:
                    bc:b3:5e:e0:a3:03:38:da:68:82:20:dd:ac:fe:14:
                    7f:9e:c8:a3:20:4e:ee:14:9f:68:d1:f3:3b:3b:12:
                    8d:20:90:d3:b0:49:73:a0:0a:04:83:8e:93:8f:60:
                    ab:cb
                Exponent: 65537 (0x10001)
        X509v3 extensions:
            Netscape Comment: 
                OpenSSL Generated Certificate
            X509v3 Subject Key Identifier: 
                88:63:56:06:D2:7B:02:C6:CF:DA:C8:57:93:F2:E1:3D:BA:1B:5A:59
            X509v3 Authority Key Identifier: 
                DirName:/C=US/ST=California/L=San Francisco/O=MyOrg/OU=MyUnit/CN=root
                serial:1F:E5:64:87:C7:8C:65:A9:42:1E:AE:FA:6D:95:BD:55:F8:41:B6:A2
            X509v3 Extended Key Usage: critical
                Time Stamping
    Signature Algorithm: sha256WithRSAEncryption
    Signature Value:
        37:f5:2e:43:c1:c6:8c:20:a1:b8:0a:c5:24:26:f2:b2:3d:23:
        16:6c:59:ba:2f:ea:d8:30:ba:a7:0f:74:b1:61:e7:ce:08:69:
        a9:e1:1d:ec:97:91:dd:f8:6b:b6:97:de:ee:e4:f1:21:b5:39:
        60:ce:40:71:89:ab:d2:29:af:ff:b4:dd:1b:94:e5:77:2a:59:
        8a:a7:82:d6:ba:82:f1:72:f5:08:f2:c3:65:01:d8:f2:ac:b7:
        c4:ea:55:db:46:4e:24:12:f4:91:5a:11:f0:85:1d:be:eb:7f:
        2b:46:87:bd:f6:72:88:c0:48:fd:7e:a2:b2:88:95:7b:4c:95:
        f1:e8:85:ce:c0:a0:aa:46:c5:e6:17:2e:b8:7f:fb:dc:e8:56:
        cb:4b:9d:ed:e0:d2:29:cf:75:d2:1b:06:6b:de:5c:e6:9d:17:
        af:e2:d2:3f:7b:16:21:4f:fd:e3:0a:29:27:5e:34:a5:77:68:
        53:ef:8d:ef:b8:fa:d2:71:96:fb:13:86:72:9b:4c:db:83:c6:
        7f:98:30:f7:b0:9b:15:6c:64:73:0d:30:7a:d2:ae:c1:9d:a4:
        8c:f5:1d:39:46:ef:f9:1a:3e:92:2f:7a:81:de:c8:c7:a7:68:
        54:67:e7:0d:db:48:f7:f7:ce:76:a4:46:d5:db:8b:d1:bc:83:
        a9:3d:cb:78
-----BEGIN CERTIFICATE-----
MIIEOjCCAyKgAwIBAgICEAAwDQYJKoZIhvcNAQELBQAwfDELMAkGA1UEBhMCVVMx
EzARBgNVBAgMCkNhbGlmb3JuaWExFjAUBgNVBAcMDVNhbiBGcmFuY2lzY28xDjAM
BgNVBAoMBU15T3JnMQ8wDQYDVQQLDAZNeVVuaXQxHzAdBgNVBAMMFmludGVybWVk
aWF0ZS1jYV9jbGllbnQwHhcNMjYwMTA4MjExMzEyWhcNMjcwMTA4MjExMzEyWjBF
MQswCQYDVQQGEwJERTESMBAGA1UECgwJb3BlbjYyNTQxMSIwIAYDVQQDDBlvcGVu
NjI1NDFTZXJ2ZXJAbG9jYWxob3N0MIIBIjANBgkqhkiG9w0BAQEFAAOCAQ8AMIIB
CgKCAQEA5wJcEIE83vzjOzRz/qEf9f13HOrS3R2MllsrnW8dlXhRk9s+U5hKDAme
0CaJhn6kha1yGx2je4X2A2foOFf9Dd7qwySR+4j/dcAtAgVn4vnMzMGbpuVBDL+f
NSm1mjaHbSeIIzWGMZ33JIvfOVsdgEoPrO7Y8lqoyPHkGRmWnvDMs2XX312sjd7P
sWQviXf5rp+fKZwZyd1Kjf61Bk3sp2+mGqUs4cHKaq53Als1hsaUaQzkVdwQvib4
tbi9jz6iqhpXlhFSQFPHZnc6u0QUV8y8s17gowM42miCIN2s/hR/nsijIE7uFJ9o
0fM7OxKNIJDTsElzoAoEg46Tj2CrywIDAQABo4H8MIH5MCwGCWCGSAGG+EIBDQQf
Fh1PcGVuU1NMIEdlbmVyYXRlZCBDZXJ0aWZpY2F0ZTAdBgNVHQ4EFgQUiGNWBtJ7
AsbP2shXk/LhPbobWlkwgZEGA1UdIwSBiTCBhqFupGwwajELMAkGA1UEBhMCVVMx
EzARBgNVBAgMCkNhbGlmb3JuaWExFjAUBgNVBAcMDVNhbiBGcmFuY2lzY28xDjAM
BgNVBAoMBU15T3JnMQ8wDQYDVQQLDAZNeVVuaXQxDTALBgNVBAMMBHJvb3SCFB/l
ZIfHjGWpQh6u+m2VvVX4QbaiMBYGA1UdJQEB/wQMMAoGCCsGAQUFBwMIMA0GCSqG
SIb3DQEBCwUAA4IBAQA39S5DwcaMIKG4CsUkJvKyPSMWbFm6L+rYMLqnD3SxYefO
CGmp4R3sl5Hd+Gu2l97u5PEhtTlgzkBxiavSKa//tN0blOV3KlmKp4LWuoLxcvUI
8sNlAdjyrLfE6lXbRk4kEvSRWhHwhR2+638rRoe99nKIwEj9fqKyiJV7TJXx6IXO
wKCqRsXmFy64f/vc6FbLS53t4NIpz3XSGwZr3lzmnRev4tI/exYhT/3jCiknXjSl
d2hT743vuPrScZb7E4Zym0zbg8Z/mDD3sJsVbGRzDTB60q7BnaSM9R05Ru/5Gj6S
L3qB3sjHp2hUZ+cN20j39852pEbV24vRvIOpPct4
-----END CERTIFICATE-----
