Certificate:
    Data:
        Version: 3 (0x2)
        Serial Number: 4097 (0x1001)
        Signature Algorithm: sha256WithRSAEncryption
        Issuer: C=US, ST=California, L=San Francisco, O=MyOrg, OU=MyUnit, CN=intermediate_server
        Validity
            Not Before: Jan  8 22:38:58 2026 GMT
            Not After : Jan  8 22:38:58 2027 GMT
        Subject: C=DE, O=open62541, CN=open62541Server@localhost
        Subject Public Key Info:
            Public Key Algorithm: rsaEncryption
                Public-Key: (2048 bit)
                Modulus:
                    00:96:ed:bf:97:87:2c:90:63:9a:c0:70:f4:ee:0d:
                    b5:51:e1:b5:9b:d3:2f:85:51:49:03:cd:79:13:08:
                    6e:47:fd:19:a1:ab:ff:b7:9c:9e:cb:65:e8:f9:0f:
                    dc:a5:d2:c3:ea:c9:9d:fc:0a:a4:6d:20:57:b0:be:
                    45:88:fe:36:0c:fa:1a:c2:70:11:84:2c:4f:b2:e2:
                    86:9d:8a:8d:28:e9:b5:14:cb:5b:25:93:a7:3c:c8:
                    4a:ee:7c:fb:d5:20:2e:3b:de:39:f9:9c:b1:db:86:
                    04:c0:72:35:71:d3:fb:e0:74:79:5c:f8:66:82:f7:
                    8b:5a:6e:70:81:6b:5c:bd:c0:4e:eb:94:4e:54:6e:
                    15:82:97:2b:06:c2:ad:6a:a3:81:11:8c:0e:2f:85:
                    cd:f4:26:3e:c9:2b:2f:08:5e:cd:69:da:19:60:d6:
                    83:5c:77:b0:94:22:52:57:92:de:ed:a6:35:a2:04:
                    b4:70:f4:32:b4:b1:b6:20:c0:74:f6:67:2c:51:1a:
                    72:c0:e1:45:47:61:ae:b7:26:80:1c:7a:c6:ae:23:
                    3e:8d:0d:cc:5d:3c:df:40:19:15:88:ca:1e:0f:b4:
                    53:5a:50:12:b0:0e:5c:11:d3:e0:8b:20:11:69:f2:
                    a0:00:f9:a9:a5:58:4f:da:2c:c8:50:81:64:77:26:
                    f7:e3
                Exponent: 65537 (0x10001)
        X509v3 extensions:
            X509v3 Basic Constraints: 
                CA:FALSE
            X509v3 Subject Key Identifier: 
                75:1C:B9:82:D7:01:F1:B4:8D:D4:EB:1A:A5:22:24:8A:D8:D9:0C:45
            X509v3 Authority Key Identifier: 
                20:0E:2A:4C:02:EF:75:D2:C1:BD:DD:C8:4E:22:D6:26:71:DC:35:1F
            X509v3 Key Usage: 
                Digital Signature, Non Repudiation, Key Encipherment, Data Encipherment, Certificate Sign
            X509v3 Extended Key Usage: 
                TLS Web Server Authentication, TLS Web Client Authentication
            X509v3 Subject Alternative Name: 
                DNS:pege, DNS:pege, IP Address:127.0.0.1, IP Address:127.0.0.1, URI:urn:open62541.unconfigured.application
    Signature Algorithm: sha256WithRSAEncryption
    Signature Value:
        24:2d:a1:b3:48:6d:e1:43:88:ff:7c:4d:2d:0f:f4:48:41:6a:
        bb:67:7a:c6:0f:49:b9:b7:b5:5d:0d:2d:75:57:48:06:3f:54:
        a5:d0:3a:cb:9f:30:50:df:be:09:c2:d9:79:d8:c0:64:0c:04:
        4c:d8:92:30:96:9e:60:c7:65:3b:ca:b3:65:1a:c7:43:d1:56:
        2b:9d:47:dc:cc:f0:c8:47:38:6d:27:0e:cd:9f:70:62:9c:64:
        1c:95:d9:d3:1f:80:ae:d6:9a:13:c0:05:23:8c:4f:75:b7:a0:
        3f:8e:24:24:23:d5:e8:2b:f2:d0:df:87:33:a2:58:77:7b:03:
        c8:2a:e8:33:27:30:1c:32:00:e1:f8:6e:22:6e:f8:53:38:f5:
        21:e4:4e:4d:b8:3a:b2:31:80:3c:dc:5f:f2:bf:31:50:98:27:
        16:18:f2:bb:02:e5:81:24:b4:6d:7b:0e:e8:d1:2c:1c:f4:c7:
        92:14:2e:ee:28:ae:e5:7e:2d:b3:cf:99:05:22:5c:25:59:10:
        38:64:c1:c5:fa:3d:b5:09:ba:27:af:dd:9b:0a:ec:06:22:c0:
        e8:b2:5c:e3:56:b7:87:b2:08:75:e1:a9:e1:42:44:16:cd:00:
        6a:43:29:60:51:d4:00:2c:77:61:d6:22:40:70:c5:7f:87:63:
        18:d4:04:4a
-----BEGIN CERTIFICATE-----
MIIEADCCAuigAwIBAgICEAEwDQYJKoZIhvcNAQELBQAweTELMAkGA1UEBhMCVVMx
EzARBgNVBAgMCkNhbGlmb3JuaWExFjAUBgNVBAcMDVNhbiBGcmFuY2lzY28xDjAM
BgNVBAoMBU15T3JnMQ8wDQYDVQQLDAZNeVVuaXQxHDAaBgNVBAMME2ludGVybWVk
aWF0ZV9zZXJ2ZXIwHhcNMjYwMTA4MjIzODU4WhcNMjcwMTA4MjIzODU4WjBFMQsw
CQYDVQQGEwJERTESMBAGA1UECgwJb3BlbjYyNTQxMSIwIAYDVQQDDBlvcGVuNjI1
NDFTZXJ2ZXJAbG9jYWxob3N0MIIBIjANBgkqhkiG9w0BAQEFAAOCAQ8AMIIBCgKC
AQEAlu2/l4cskGOawHD07g21UeG1m9MvhVFJA815EwhuR/0Zoav/t5yey2Xo+Q/c
pdLD6smd/AqkbSBXsL5FiP42DPoawnARhCxPsuKGnYqNKOm1FMtbJZOnPMhK7nz7
1SAuO945+Zyx24YEwHI1cdP74HR5XPhmgveLWm5wgWtcvcBO65ROVG4VgpcrBsKt
aqOBEYwOL4XN9CY+ySsvCF7NadoZYNaDXHewlCJSV5Le7aY1ogS0cPQytLG2IMB0
9mcsURpywOFFR2GutyaAHHrGriM+jQ3MXTzfQBkViMoeD7RTWlASsA5cEdPgiyAR
afKgAPmppVhP2izIUIFkdyb34wIDAQABo4HFMIHCMAkGA1UdEwQCMAAwHQYDVR0O
BBYEFHUcuYLXAfG0jdTrGqUiJIrY2QxFMB8GA1UdIwQYMBaAFCAOKkwC73XSwb3d
yE4i1iZx3DUfMAsGA1UdDwQEAwIC9DAdBgNVHSUEFjAUBggrBgEFBQcDAQYIKwYB
BQUHAwIwSQYDVR0RBEIwQIIEcGVnZYIEcGVnZYcEfwAAAYcEfwAAAYYmdXJuOm9w
ZW42MjU0MS51bmNvbmZpZ3VyZWQuYXBwbGljYXRpb24wDQYJKoZIhvcNAQELBQAD
ggEBACQtobNIbeFDiP98TS0P9EhBartnesYPSbm3tV0NLXVXSAY/VKXQOsufMFDf
vgnC2XnYwGQMBEzYkjCWnmDHZTvKs2Uax0PRViudR9zM8MhHOG0nDs2fcGKcZByV
2dMfgK7WmhPABSOMT3W3oD+OJCQj1egr8tDfhzOiWHd7A8gq6DMnMBwyAOH4biJu
+FM49SHkTk24OrIxgDzcX/K/MVCYJxYY8rsC5YEktG17DujRLBz0x5IULu4oruV+
LbPPmQUiXCVZEDhkwcX6PbUJuiev3ZsK7AYiwOiyXONWt4eyCHXhqeFCRBbNAGpD
KWBR1AAsd2HWIkBwxX+HYxjUBEo=
-----END CERTIFICATE-----
